; Function Attrs: mustprogress uwtable
define hidden noalias noundef ptr @_Z11fail_if_notP5probe(ptr noundef %p) local_unnamed_addr #3 personality ptr @__gxx_personality_v0 {
entry:
  %call = tail call noundef ptr @_Z6mk_notP5probe(ptr noundef %p)
  %call.i = tail call noalias noundef ptr @_ZN6memory8allocateEm(i64 noundef 24)
  %m_ref_count.i.i.i = getelementptr inbounds i8, ptr %call.i, i64 8
  store i32 0, ptr %m_ref_count.i.i.i, align 8
  store ptr getelementptr inbounds ({ [25 x ptr] }, ptr @_ZTV14fail_if_tactic, i64 0, i32 0, i64 2), ptr %call.i, align 8
  %m_p.i.i = getelementptr inbounds i8, ptr %call.i, i64 16
  store ptr %call, ptr %m_p.i.i, align 8
  %tobool.not.i.i.i.i = icmp eq ptr %call, null
  br i1 %tobool.not.i.i.i.i, label %_Z7fail_ifP5probe.exit, label %if.then.i.i.i.i

if.then.i.i.i.i:                                  ; preds = %entry
  %m_ref_count.i.i.i.i.i = getelementptr inbounds i8, ptr %call, i64 8
  %0 = load i32, ptr %m_ref_count.i.i.i.i.i, align 8
  %inc.i.i.i.i.i = add i32 %0, 1
  store i32 %inc.i.i.i.i.i, ptr %m_ref_count.i.i.i.i.i, align 8
  br label %_Z7fail_ifP5probe.exit

_Z7fail_ifP5probe.exit:                           ; preds = %entry, %if.then.i.i.i.i
  ret ptr %call.i
}